target datalayout = "e-m:e-p270:32:32-p271:32:32-p272:64:64-i64:64-i128:128-f80:128-n8:16:32:64-S128"
target triple = "x86_64-pc-linux-gnu"

%struct._gsm_a_tap_rec_t = type { i8, i8, i32 }
%struct._gsm_a_stat_t = type { [256 x i32], [256 x i32], [256 x i32], [256 x i32], [256 x i32], [256 x i32], [256 x i32], [256 x i32], [256 x i32], [256 x i32] }

; Function Attrs: nounwind null_pointer_is_valid sspstrong uwtable
define internal i32 @gsm_a_stat_packet(ptr noundef %0, ptr noundef %1, ptr noundef %2, ptr noundef %3, i32 noundef %4) #7 {
  %6 = alloca i32, align 4
  %7 = alloca ptr, align 8
  %8 = alloca ptr, align 8
  %9 = alloca ptr, align 8
  %10 = alloca ptr, align 8
  %11 = alloca i32, align 4
  %12 = alloca ptr, align 8
  %13 = alloca ptr, align 8
  %14 = alloca i32, align 4
  store ptr %0, ptr %7, align 8
  store ptr %1, ptr %8, align 8
  store ptr %2, ptr %9, align 8
  store ptr %3, ptr %10, align 8
  store i32 %4, ptr %11, align 4
  call void @llvm.lifetime.start.p0(i64 8, ptr %12) #11
  %15 = load ptr, ptr %7, align 8
  store ptr %15, ptr %12, align 8
  call void @llvm.lifetime.start.p0(i64 8, ptr %13) #11
  %16 = load ptr, ptr %10, align 8
  store ptr %16, ptr %13, align 8
  %17 = load ptr, ptr %13, align 8
  %18 = getelementptr inbounds nuw %struct._gsm_a_tap_rec_t, ptr %17, i32 0, i32 0
  %19 = load i8, ptr %18, align 4
  %20 = zext i8 %19 to i32
  switch i32 %20, label %133 [
    i32 0, label %21
    i32 1, label %31
    i32 7, label %117
  ]

21:                                               ; preds = %5
  %22 = load ptr, ptr %12, align 8
  %23 = getelementptr inbounds nuw %struct._gsm_a_stat_t, ptr %22, i32 0, i32 0
  %24 = load ptr, ptr %13, align 8
  %25 = getelementptr inbounds nuw %struct._gsm_a_tap_rec_t, ptr %24, i32 0, i32 1
  %26 = load i8, ptr %25, align 1
  %27 = zext i8 %26 to i64
  %28 = getelementptr [256 x i32], ptr %23, i64 0, i64 %27
  %29 = load i32, ptr %28, align 4
  %30 = add i32 %29, 1
  store i32 %30, ptr %28, align 4
  br label %134

31:                                               ; preds = %5
  %32 = load ptr, ptr %13, align 8
  %33 = getelementptr inbounds nuw %struct._gsm_a_tap_rec_t, ptr %32, i32 0, i32 2
  %34 = load i32, ptr %33, align 4
  switch i32 %34, label %115 [
    i32 3, label %35
    i32 5, label %45
    i32 6, label %55
    i32 8, label %65
    i32 9, label %75
    i32 10, label %85
    i32 11, label %95
    i32 15, label %105
  ]

35:                                               ; preds = %31
  %36 = load ptr, ptr %12, align 8
  %37 = getelementptr inbounds nuw %struct._gsm_a_stat_t, ptr %36, i32 0, i32 3
  %38 = load ptr, ptr %13, align 8
  %39 = getelementptr inbounds nuw %struct._gsm_a_tap_rec_t, ptr %38, i32 0, i32 1
  %40 = load i8, ptr %39, align 1
  %41 = zext i8 %40 to i64
  %42 = getelementptr [256 x i32], ptr %37, i64 0, i64 %41
  %43 = load i32, ptr %42, align 4
  %44 = add i32 %43, 1
  store i32 %44, ptr %42, align 4
  br label %116

45:                                               ; preds = %31
  %46 = load ptr, ptr %12, align 8
  %47 = getelementptr inbounds nuw %struct._gsm_a_stat_t, ptr %46, i32 0, i32 1
  %48 = load ptr, ptr %13, align 8
  %49 = getelementptr inbounds nuw %struct._gsm_a_tap_rec_t, ptr %48, i32 0, i32 1
  %50 = load i8, ptr %49, align 1
  %51 = zext i8 %50 to i64
  %52 = getelementptr [256 x i32], ptr %47, i64 0, i64 %51
  %53 = load i32, ptr %52, align 4
  %54 = add i32 %53, 1
  store i32 %54, ptr %52, align 4
  br label %116

55:                                               ; preds = %31
  %56 = load ptr, ptr %12, align 8
  %57 = getelementptr inbounds nuw %struct._gsm_a_stat_t, ptr %56, i32 0, i32 2
  %58 = load ptr, ptr %13, align 8
  %59 = getelementptr inbounds nuw %struct._gsm_a_tap_rec_t, ptr %58, i32 0, i32 1
  %60 = load i8, ptr %59, align 1
  %61 = zext i8 %60 to i64
  %62 = getelementptr [256 x i32], ptr %57, i64 0, i64 %61
  %63 = load i32, ptr %62, align 4
  %64 = add i32 %63, 1
  store i32 %64, ptr %62, align 4
  br label %116

65:                                               ; preds = %31
  %66 = load ptr, ptr %12, align 8
  %67 = getelementptr inbounds nuw %struct._gsm_a_stat_t, ptr %66, i32 0, i32 4
  %68 = load ptr, ptr %13, align 8
  %69 = getelementptr inbounds nuw %struct._gsm_a_tap_rec_t, ptr %68, i32 0, i32 1
  %70 = load i8, ptr %69, align 1
  %71 = zext i8 %70 to i64
  %72 = getelementptr [256 x i32], ptr %67, i64 0, i64 %71
  %73 = load i32, ptr %72, align 4
  %74 = add i32 %73, 1
  store i32 %74, ptr %72, align 4
  br label %116

75:                                               ; preds = %31
  %76 = load ptr, ptr %12, align 8
  %77 = getelementptr inbounds nuw %struct._gsm_a_stat_t, ptr %76, i32 0, i32 5
  %78 = load ptr, ptr %13, align 8
  %79 = getelementptr inbounds nuw %struct._gsm_a_tap_rec_t, ptr %78, i32 0, i32 1
  %80 = load i8, ptr %79, align 1
  %81 = zext i8 %80 to i64
  %82 = getelementptr [256 x i32], ptr %77, i64 0, i64 %81
  %83 = load i32, ptr %82, align 4
  %84 = add i32 %83, 1
  store i32 %84, ptr %82, align 4
  br label %116

85:                                               ; preds = %31
  %86 = load ptr, ptr %12, align 8
  %87 = getelementptr inbounds nuw %struct._gsm_a_stat_t, ptr %86, i32 0, i32 6
  %88 = load ptr, ptr %13, align 8
  %89 = getelementptr inbounds nuw %struct._gsm_a_tap_rec_t, ptr %88, i32 0, i32 1
  %90 = load i8, ptr %89, align 1
  %91 = zext i8 %90 to i64
  %92 = getelementptr [256 x i32], ptr %87, i64 0, i64 %91
  %93 = load i32, ptr %92, align 4
  %94 = add i32 %93, 1
  store i32 %94, ptr %92, align 4
  br label %116

95:                                               ; preds = %31
  %96 = load ptr, ptr %12, align 8
  %97 = getelementptr inbounds nuw %struct._gsm_a_stat_t, ptr %96, i32 0, i32 7
  %98 = load ptr, ptr %13, align 8
  %99 = getelementptr inbounds nuw %struct._gsm_a_tap_rec_t, ptr %98, i32 0, i32 1
  %100 = load i8, ptr %99, align 1
  %101 = zext i8 %100 to i64
  %102 = getelementptr [256 x i32], ptr %97, i64 0, i64 %101
  %103 = load i32, ptr %102, align 4
  %104 = add i32 %103, 1
  store i32 %104, ptr %102, align 4
  br label %116

105:                                              ; preds = %31
  %106 = load ptr, ptr %12, align 8
  %107 = getelementptr inbounds nuw %struct._gsm_a_stat_t, ptr %106, i32 0, i32 8
  %108 = load ptr, ptr %13, align 8
  %109 = getelementptr inbounds nuw %struct._gsm_a_tap_rec_t, ptr %108, i32 0, i32 1
  %110 = load i8, ptr %109, align 1
  %111 = zext i8 %110 to i64
  %112 = getelementptr [256 x i32], ptr %107, i64 0, i64 %111
  %113 = load i32, ptr %112, align 4
  %114 = add i32 %113, 1
  store i32 %114, ptr %112, align 4
  br label %116

115:                                              ; preds = %31
  store i32 0, ptr %6, align 4
  store i32 1, ptr %14, align 4
  br label %135

116:                                              ; preds = %105, %95, %85, %75, %65, %55, %45, %35
  br label %134

117:                                              ; preds = %5
  %118 = load ptr, ptr %13, align 8
  %119 = getelementptr inbounds nuw %struct._gsm_a_tap_rec_t, ptr %118, i32 0, i32 2
  %120 = load i32, ptr %119, align 4
  switch i32 %120, label %131 [
    i32 0, label %121
  ]

121:                                              ; preds = %117
  %122 = load ptr, ptr %12, align 8
  %123 = getelementptr inbounds nuw %struct._gsm_a_stat_t, ptr %122, i32 0, i32 9
  %124 = load ptr, ptr %13, align 8
  %125 = getelementptr inbounds nuw %struct._gsm_a_tap_rec_t, ptr %124, i32 0, i32 1
  %126 = load i8, ptr %125, align 1
  %127 = zext i8 %126 to i64
  %128 = getelementptr [256 x i32], ptr %123, i64 0, i64 %127
  %129 = load i32, ptr %128, align 4
  %130 = add i32 %129, 1
  store i32 %130, ptr %128, align 4
  br label %132

131:                                              ; preds = %117
  br label %132

132:                                              ; preds = %131, %121
  br label %134

133:                                              ; preds = %5
  store i32 0, ptr %6, align 4
  store i32 1, ptr %14, align 4
  br label %135

134:                                              ; preds = %132, %116, %21
  store i32 1, ptr %6, align 4
  store i32 1, ptr %14, align 4
  br label %135

135:                                              ; preds = %134, %133, %115
  call void @llvm.lifetime.end.p0(i64 8, ptr %13) #11
  call void @llvm.lifetime.end.p0(i64 8, ptr %12) #11
  %136 = load i32, ptr %6, align 4
  ret i32 %136
}