; Function Attrs: mustprogress nofree norecurse nosync nounwind null_pointer_is_valid sspstrong willreturn memory(argmem: readwrite) uwtable
define internal range(i32 0, 2) i32 @gsm_a_stat_packet(ptr noundef captures(none) %0, ptr readnone captures(none) %1, ptr readnone captures(none) %2, ptr noundef readonly captures(none) %3, i32 %4) #3 {
  %6 = load i8, ptr %3, align 4
  switch i8 %6, label %37 [
    i8 0, label %.sink.split
    i8 1, label %7
    i8 7, label %26
  ]

7:                                                ; preds = %5
  %8 = getelementptr inbounds nuw i8, ptr %3, i64 4
  %9 = load i32, ptr %8, align 4
  switch i32 %9, label %37 [
    i32 3, label %10
    i32 5, label %12
    i32 6, label %14
    i32 8, label %16
    i32 9, label %18
    i32 10, label %20
    i32 11, label %22
    i32 15, label %24
  ]

10:                                               ; preds = %7
  %11 = getelementptr inbounds nuw i8, ptr %0, i64 3072
  br label %.sink.split

12:                                               ; preds = %7
  %13 = getelementptr inbounds nuw i8, ptr %0, i64 1024
  br label %.sink.split

14:                                               ; preds = %7
  %15 = getelementptr inbounds nuw i8, ptr %0, i64 2048
  br label %.sink.split

16:                                               ; preds = %7
  %17 = getelementptr inbounds nuw i8, ptr %0, i64 4096
  br label %.sink.split

18:                                               ; preds = %7
  %19 = getelementptr inbounds nuw i8, ptr %0, i64 5120
  br label %.sink.split

20:                                               ; preds = %7
  %21 = getelementptr inbounds nuw i8, ptr %0, i64 6144
  br label %.sink.split

22:                                               ; preds = %7
  %23 = getelementptr inbounds nuw i8, ptr %0, i64 7168
  br label %.sink.split

24:                                               ; preds = %7
  %25 = getelementptr inbounds nuw i8, ptr %0, i64 8192
  br label %.sink.split

26:                                               ; preds = %5
  %27 = getelementptr inbounds nuw i8, ptr %3, i64 4
  %28 = load i32, ptr %27, align 4
  %cond = icmp eq i32 %28, 0
  br i1 %cond, label %29, label %37

29:                                               ; preds = %26
  %30 = getelementptr inbounds nuw i8, ptr %0, i64 9216
  br label %.sink.split

.sink.split:                                      ; preds = %5, %29, %10, %12, %14, %16, %18, %20, %22, %24
  %.sink27 = phi ptr [ %25, %24 ], [ %23, %22 ], [ %21, %20 ], [ %19, %18 ], [ %17, %16 ], [ %15, %14 ], [ %13, %12 ], [ %11, %10 ], [ %30, %29 ], [ %0, %5 ]
  %31 = getelementptr inbounds nuw i8, ptr %3, i64 1
  %32 = load i8, ptr %31, align 1
  %33 = zext i8 %32 to i64
  %34 = getelementptr [256 x i32], ptr %.sink27, i64 0, i64 %33
  %35 = load i32, ptr %34, align 4
  %36 = add i32 %35, 1
  store i32 %36, ptr %34, align 4
  br label %37

37:                                               ; preds = %.sink.split, %26, %5, %7
  %.0 = phi i32 [ 0, %7 ], [ 0, %5 ], [ 1, %26 ], [ 1, %.sink.split ]
  ret i32 %.0
}